(dp1
S'OperateurID'
p2
S'gc'
p3
sS'numBobine'
p4
S'1'
sS'DNoyau'
p5
S'10'
p6
sS'nomBobine'
p7
S'1'
sS'Ntours'
p8
S'100'
p9
sS'longBobine'
p10
S'10'
p11
sS'diamFil'
p12
S'30'
p13
sS'nomProjet'
p14
S'test'
p15
sS'IDbobine'
p16
S'gc_tes_1_1'
p17
sS'NInterrupt'
p18
S'25'
p19
s.