(dp1
S'OperateurID'
p2
S'mm'
p3
sS'numBobine'
p4
S'pop'
p5
sS'DNoyau'
p6
S'5'
sS'nomBobine'
p7
S'1'
sS'Ntours'
p8
S'200'
p9
sS'longBobine'
p10
S'10'
p11
sS'diamFil'
p12
S'50'
p13
sS'nomProjet'
p14
S'pp'
p15
sS'IDbobine'
p16
S'mm_pp_1_pop'
p17
sS'NInterrupt'
p18
S'-1'
p19
s.